; Function Attrs: mustprogress uwtable
define internal fastcc void @_ZN5arrow12_GLOBAL__N_122ArrayStreamBatchReader16StatusFromCErrorEP16ArrowArrayStreami(ptr noalias align 8 %agg.result, ptr noundef %stream, i32 noundef %errno_like) unnamed_addr #0 align 2 personality ptr @__gxx_personality_v0 {
entry:
  %ref.tmp = alloca %"class.std::__cxx11::basic_string", align 8
  %ref.tmp4 = alloca %"class.std::allocator", align 1
  %ref.tmp5 = alloca %"class.std::allocator", align 1
  switch i32 %errno_like, label %sw.default [
    i32 0, label %if.then
    i32 33, label %sw.epilog
    i32 22, label %sw.epilog
    i32 34, label %sw.epilog
    i32 12, label %sw.bb2
  ]

if.then:                                          ; preds = %entry
  store ptr null, ptr %agg.result, align 8, !alias.scope !2412
  br label %return

sw.bb2:                                           ; preds = %entry
  br label %sw.epilog

sw.default:                                       ; preds = %entry
  br label %sw.epilog

sw.epilog:                                        ; preds = %entry, %entry, %entry, %sw.default, %sw.bb2
  %code.0 = phi i8 [ 5, %sw.default ], [ 1, %sw.bb2 ], [ 4, %entry ], [ 4, %entry ], [ 4, %entry ]
  %get_last_error = getelementptr inbounds i8, ptr %stream, i64 16
  %0 = load ptr, ptr %get_last_error, align 8
  %call = tail call noundef ptr %0(ptr noundef %stream)
  %tobool.not.not = icmp eq ptr %call, null
  br i1 %tobool.not.not, label %cond.false, label %cond.true

cond.true:                                        ; preds = %sw.epilog
  call void @_ZNSaIcEC1Ev(ptr noundef nonnull align 1 dereferenceable(1) %ref.tmp4) #24
  %call.i6 = invoke noundef ptr @_ZNSt7__cxx1112basic_stringIcSt11char_traitsIcESaIcEE13_M_local_dataEv(ptr noundef nonnull align 8 dereferenceable(32) %ref.tmp)
          to label %call.i.noexc unwind label %lpad

call.i.noexc:                                     ; preds = %cond.true
  invoke void @_ZNSt7__cxx1112basic_stringIcSt11char_traitsIcESaIcEE12_Alloc_hiderC1EPcRKS3_(ptr noundef nonnull align 8 dereferenceable(8) %ref.tmp, ptr noundef %call.i6, ptr noundef nonnull align 1 dereferenceable(1) %ref.tmp4)
          to label %if.end.i unwind label %lpad

lpad.i:                                           ; preds = %if.end.i
  %1 = landingpad { ptr, i32 }
          cleanup
  call void @_ZNSaIcED2Ev(ptr noundef nonnull align 1 dereferenceable(1) %ref.tmp) #24
  br label %eh.resume

if.end.i:                                         ; preds = %call.i.noexc
  %call.i.i = call noundef i64 @strlen(ptr noundef nonnull dereferenceable(1) %call) #24
  %add.ptr.i = getelementptr inbounds i8, ptr %call, i64 %call.i.i
  invoke void @_ZNSt7__cxx1112basic_stringIcSt11char_traitsIcESaIcEE12_M_constructIPKcEEvT_S8_St20forward_iterator_tag(ptr noundef nonnull align 8 dereferenceable(32) %ref.tmp, ptr noundef nonnull %call, ptr noundef nonnull %add.ptr.i)
          to label %cond.end unwind label %lpad.i

cond.false:                                       ; preds = %sw.epilog
  call void @_ZNSaIcEC1Ev(ptr noundef nonnull align 1 dereferenceable(1) %ref.tmp5) #24
  %call.i12 = invoke noundef ptr @_ZNSt7__cxx1112basic_stringIcSt11char_traitsIcESaIcEE13_M_local_dataEv(ptr noundef nonnull align 8 dereferenceable(32) %ref.tmp)
          to label %call.i.noexc11 unwind label %lpad7

call.i.noexc11:                                   ; preds = %cond.false
  invoke void @_ZNSt7__cxx1112basic_stringIcSt11char_traitsIcESaIcEE12_Alloc_hiderC1EPcRKS3_(ptr noundef nonnull align 8 dereferenceable(8) %ref.tmp, ptr noundef %call.i12, ptr noundef nonnull align 1 dereferenceable(1) %ref.tmp5)
          to label %.noexc13 unwind label %lpad7

.noexc13:                                         ; preds = %call.i.noexc11
  invoke void @_ZNSt7__cxx1112basic_stringIcSt11char_traitsIcESaIcEE12_M_constructIPKcEEvT_S8_St20forward_iterator_tag(ptr noundef nonnull align 8 dereferenceable(32) %ref.tmp, ptr noundef nonnull @.str.99, ptr noundef nonnull @.str.99)
          to label %cond.end unwind label %lpad.i10

lpad.i10:                                         ; preds = %.noexc13
  %2 = landingpad { ptr, i32 }
          cleanup
  call void @_ZNSaIcED2Ev(ptr noundef nonnull align 1 dereferenceable(1) %ref.tmp) #24
  br label %eh.resume

cond.end:                                         ; preds = %.noexc13, %if.end.i
  invoke void @_ZN5arrow6StatusC1ENS_10StatusCodeERKNSt7__cxx1112basic_stringIcSt11char_traitsIcESaIcEEE(ptr noundef nonnull align 8 dereferenceable(8) %agg.result, i8 noundef signext %code.0, ptr noundef nonnull align 8 dereferenceable(32) %ref.tmp)
          to label %invoke.cont10 unwind label %ehcleanup

invoke.cont10:                                    ; preds = %cond.end
  call void @_ZNSt7__cxx1112basic_stringIcSt11char_traitsIcESaIcEED1Ev(ptr noundef nonnull align 8 dereferenceable(32) %ref.tmp) #24
  br i1 %tobool.not.not, label %cleanup.action, label %cleanup.action15

cleanup.action:                                   ; preds = %invoke.cont10
  call void @_ZNSaIcED1Ev(ptr noundef nonnull align 1 dereferenceable(1) %ref.tmp5) #24
  br label %return

cleanup.action15:                                 ; preds = %invoke.cont10
  call void @_ZNSaIcED1Ev(ptr noundef nonnull align 1 dereferenceable(1) %ref.tmp4) #24
  br label %return

lpad:                                             ; preds = %call.i.noexc, %cond.true
  %3 = landingpad { ptr, i32 }
          cleanup
  br label %eh.resume

lpad7:                                            ; preds = %call.i.noexc11, %cond.false
  %4 = landingpad { ptr, i32 }
          cleanup
  br label %eh.resume

ehcleanup:                                        ; preds = %cond.end
  %5 = landingpad { ptr, i32 }
          cleanup
  call void @_ZNSt7__cxx1112basic_stringIcSt11char_traitsIcESaIcEED1Ev(ptr noundef nonnull align 8 dereferenceable(32) %ref.tmp) #24
  %spec.select = select i1 %tobool.not.not, ptr %ref.tmp5, ptr %ref.tmp4
  br label %eh.resume

return:                                           ; preds = %cleanup.action, %cleanup.action15, %if.then
  ret void

eh.resume:                                        ; preds = %ehcleanup, %lpad.i, %lpad, %lpad7, %lpad.i10
  %ref.tmp5.sink = phi ptr [ %ref.tmp5, %lpad.i10 ], [ %ref.tmp5, %lpad7 ], [ %ref.tmp4, %lpad ], [ %ref.tmp4, %lpad.i ], [ %spec.select, %ehcleanup ]
  %.pn.pn23 = phi { ptr, i32 } [ %2, %lpad.i10 ], [ %4, %lpad7 ], [ %3, %lpad ], [ %1, %lpad.i ], [ %5, %ehcleanup ]
  call void @_ZNSaIcED1Ev(ptr noundef nonnull align 1 dereferenceable(1) %ref.tmp5.sink) #24
  resume { ptr, i32 } %.pn.pn23
}